; Function Attrs: nounwind sspstrong uwtable
define internal noundef i32 @env_replace_i(i64 noundef %0, i64 noundef %1, i64 noundef %2) #0 {
  %4 = alloca i64, align 8
  store i64 %0, ptr %4, align 8, !tbaa !7
  %5 = call i64 @rb_string_value(ptr noundef nonnull %4) #28
  %6 = load volatile i64, ptr %4, align 8, !tbaa !7
  %7 = call fastcc ptr @get_env_cstr(i64 noundef %6, ptr noundef nonnull @.str.118)
  %8 = load i64, ptr %4, align 8, !tbaa !7
  %9 = call fastcc i64 @env_aset(i64 noundef %8, i64 noundef %1)
  %10 = load i64, ptr %4, align 8, !tbaa !7
  %11 = inttoptr i64 %10 to ptr
  %12 = load i64, ptr %11, align 8, !tbaa !11, !noalias !174
  %13 = and i64 %12, 8192
  %.not.i.i = icmp eq i64 %13, 0
  %14 = getelementptr inbounds nuw i8, ptr %11, i64 24
  br i1 %.not.i.i, label %rbimpl_rstring_getmem.exit.i, label %15

15:                                               ; preds = %3
  %.sroa.520.0.copyload.i = load ptr, ptr %14, align 8
  br label %rbimpl_rstring_getmem.exit.i

rbimpl_rstring_getmem.exit.i:                     ; preds = %15, %3
  %.sroa.520.0.i = phi ptr [ %.sroa.520.0.copyload.i, %15 ], [ %14, %3 ]
  %.sroa.319.0.in.i = getelementptr inbounds nuw i8, ptr %11, i64 16
  %.sroa.319.0.i = load i64, ptr %.sroa.319.0.in.i, align 8, !tbaa !7
  %16 = inttoptr i64 %2 to ptr
  %17 = getelementptr inbounds nuw i8, ptr %16, i64 16
  %18 = getelementptr inbounds nuw i8, ptr %16, i64 32
  br label %19

19:                                               ; preds = %41, %rbimpl_rstring_getmem.exit.i
  %.0.i = phi i64 [ 0, %rbimpl_rstring_getmem.exit.i ], [ %42, %41 ]
  %20 = load i64, ptr %16, align 8, !tbaa !11
  %21 = and i64 %20, 8192
  %.not.i15.i = icmp eq i64 %21, 0
  br i1 %.not.i15.i, label %rb_array_len.exit.i, label %rb_array_len.exit.thread.i

rb_array_len.exit.i:                              ; preds = %19
  %22 = load i64, ptr %17, align 8, !tbaa !22
  %23 = icmp slt i64 %.0.i, %22
  br i1 %23, label %27, label %keylist_delete.exit

rb_array_len.exit.thread.i:                       ; preds = %19
  %24 = lshr i64 %20, 15
  %25 = and i64 %24, 127
  %26 = icmp slt i64 %.0.i, %25
  br i1 %26, label %RARRAY_AREF.exit.i, label %keylist_delete.exit

27:                                               ; preds = %rb_array_len.exit.i
  %28 = load ptr, ptr %18, align 8, !tbaa !22
  br label %RARRAY_AREF.exit.i

RARRAY_AREF.exit.i:                               ; preds = %27, %rb_array_len.exit.thread.i
  %.0.i.i.i = phi ptr [ %28, %27 ], [ %17, %rb_array_len.exit.thread.i ]
  %29 = getelementptr i64, ptr %.0.i.i.i, i64 %.0.i
  %30 = load i64, ptr %29, align 8, !tbaa !7
  %31 = inttoptr i64 %30 to ptr
  %32 = load i64, ptr %31, align 8, !tbaa !11, !noalias !177
  %33 = and i64 %32, 8192
  %.not.i16.i = icmp eq i64 %33, 0
  %34 = getelementptr inbounds nuw i8, ptr %31, i64 24
  br i1 %.not.i16.i, label %rbimpl_rstring_getmem.exit17.i, label %35

35:                                               ; preds = %RARRAY_AREF.exit.i
  %.sroa.5.0.copyload.i = load ptr, ptr %34, align 8
  br label %rbimpl_rstring_getmem.exit17.i

rbimpl_rstring_getmem.exit17.i:                   ; preds = %35, %RARRAY_AREF.exit.i
  %.sroa.5.0.i = phi ptr [ %.sroa.5.0.copyload.i, %35 ], [ %34, %RARRAY_AREF.exit.i ]
  %.sroa.3.0.in.i = getelementptr inbounds nuw i8, ptr %31, i64 16
  %.sroa.3.0.i = load i64, ptr %.sroa.3.0.in.i, align 8, !tbaa !7
  %.not.i = icmp eq i64 %.sroa.3.0.i, %.sroa.319.0.i
  br i1 %.not.i, label %36, label %41

36:                                               ; preds = %rbimpl_rstring_getmem.exit17.i
  %bcmp.i = call i32 @bcmp(ptr %.sroa.520.0.i, ptr %.sroa.5.0.i, i64 %.sroa.319.0.i)
  %37 = icmp eq i32 %bcmp.i, 0
  br i1 %37, label %38, label %41

38:                                               ; preds = %36
  %39 = call i64 @rb_ary_delete_at(i64 noundef %2, i64 noundef %.0.i) #28
  %40 = add i64 %.0.i, -1
  br label %41

41:                                               ; preds = %38, %36, %rbimpl_rstring_getmem.exit17.i
  %.1.i = phi i64 [ %40, %38 ], [ %.0.i, %rbimpl_rstring_getmem.exit17.i ], [ %.0.i, %36 ]
  %42 = add i64 %.1.i, 1
  br label %19, !llvm.loop !180

keylist_delete.exit:                              ; preds = %rb_array_len.exit.i, %rb_array_len.exit.thread.i
  ret i32 0
}